target datalayout = "e-m:e-p270:32:32-p271:32:32-p272:64:64-i64:64-i128:128-f80:128-n8:16:32:64-S128"
target triple = "x86_64-pc-linux-gnu"

%struct.Plan = type { %"class.std::map", %class.EdgePriorityQueue, ptr, %"class.std::vector.3", i32, i32 }
%"class.std::map" = type { %"class.std::_Rb_tree" }
%"class.std::_Rb_tree" = type { %"struct.std::_Rb_tree<Edge *, std::pair<Edge *const, Plan::Want>, std::_Select1st<std::pair<Edge *const, Plan::Want>>, std::less<Edge *>>::_Rb_tree_impl" }
%"struct.std::_Rb_tree<Edge *, std::pair<Edge *const, Plan::Want>, std::_Select1st<std::pair<Edge *const, Plan::Want>>, std::less<Edge *>>::_Rb_tree_impl" = type { [8 x i8], %"struct.std::_Rb_tree_header" }
%"struct.std::_Rb_tree_header" = type { %"struct.std::_Rb_tree_node_base", i64 }
%"struct.std::_Rb_tree_node_base" = type { i32, ptr, ptr, ptr }
%class.EdgePriorityQueue = type { %"class.std::priority_queue.base", [7 x i8] }
%"class.std::priority_queue.base" = type <{ %"class.std::vector", i8 }>
%"class.std::vector" = type { %"struct.std::_Vector_base" }
%"struct.std::_Vector_base" = type { %"struct.std::_Vector_base<Edge *, std::allocator<Edge *>>::_Vector_impl" }
%"struct.std::_Vector_base<Edge *, std::allocator<Edge *>>::_Vector_impl" = type { %"struct.std::_Vector_base<Edge *, std::allocator<Edge *>>::_Vector_impl_data" }
%"struct.std::_Vector_base<Edge *, std::allocator<Edge *>>::_Vector_impl_data" = type { ptr, ptr, ptr }
%"class.std::vector.3" = type { %"struct.std::_Vector_base.4" }
%"struct.std::_Vector_base.4" = type { %"struct.std::_Vector_base<const Node *, std::allocator<const Node *>>::_Vector_impl" }
%"struct.std::_Vector_base<const Node *, std::allocator<const Node *>>::_Vector_impl" = type { %"struct.std::_Vector_base<const Node *, std::allocator<const Node *>>::_Vector_impl_data" }
%"struct.std::_Vector_base<const Node *, std::allocator<const Node *>>::_Vector_impl_data" = type { ptr, ptr, ptr }
%"class.std::priority_queue" = type <{ %"class.std::vector", [8 x i8] }>
%"struct.std::pair.19" = type <{ ptr, i32, [4 x i8] }>
%"struct.std::_Rb_tree_const_iterator.95" = type { ptr }
%"struct.std::_Rb_tree_node" = type { %"struct.std::_Rb_tree_node_base", %"struct.__gnu_cxx::__aligned_membuf" }
%"struct.__gnu_cxx::__aligned_membuf" = type { [16 x i8] }

@.str.5 = private unnamed_addr constant [13 x i8] c"pending: %d\0A\00", align 1
@.str.6 = private unnamed_addr constant [6 x i8] c"want \00", align 1
@.str.7 = private unnamed_addr constant [1 x i8] zeroinitializer, align 1
@.str.8 = private unnamed_addr constant [11 x i8] c"ready: %d\0A\00", align 1

; Function Attrs: mustprogress nounwind uwtable
define linkonce_odr dso_local noundef ptr @_ZNK9__gnu_cxx16__aligned_membufISt4pairIKP4EdgeN4Plan4WantEEE7_M_addrEv(ptr noundef nonnull align 8 dereferenceable(16) %0) #1 comdat align 2 {
  %2 = alloca ptr, align 8
  store ptr %0, ptr %2, align 8, !tbaa !396
  %3 = load ptr, ptr %2, align 8
  %4 = getelementptr inbounds nuw %"struct.__gnu_cxx::__aligned_membuf", ptr %3, i32 0, i32 0
  ret ptr %4
}

; Function Attrs: mustprogress nounwind uwtable
define linkonce_odr dso_local noundef ptr @_ZNK9__gnu_cxx16__aligned_membufISt4pairIKP4EdgeN4Plan4WantEEE6_M_ptrEv(ptr noundef nonnull align 8 dereferenceable(16) %0) #1 comdat align 2 {
  %2 = alloca ptr, align 8
  store ptr %0, ptr %2, align 8, !tbaa !396
  %3 = load ptr, ptr %2, align 8
  %4 = call noundef ptr @_ZNK9__gnu_cxx16__aligned_membufISt4pairIKP4EdgeN4Plan4WantEEE7_M_addrEv(ptr noundef nonnull align 8 dereferenceable(16) %3) #7
  ret ptr %4
}

; Function Attrs: mustprogress nounwind uwtable
define linkonce_odr dso_local void @_ZNSt23_Rb_tree_const_iteratorISt4pairIKP4EdgeN4Plan4WantEEEC2EPKSt18_Rb_tree_node_base(ptr noundef nonnull align 8 dereferenceable(8) %0, ptr noundef %1) unnamed_addr #1 comdat align 2 {
  %3 = alloca ptr, align 8
  %4 = alloca ptr, align 8
  store ptr %0, ptr %3, align 8, !tbaa !251
  store ptr %1, ptr %4, align 8, !tbaa !95
  %5 = load ptr, ptr %3, align 8
  %6 = getelementptr inbounds nuw %"struct.std::_Rb_tree_const_iterator.95", ptr %5, i32 0, i32 0
  %7 = load ptr, ptr %4, align 8, !tbaa !95
  store ptr %7, ptr %6, align 8, !tbaa !253
  ret void
}

; Function Attrs: mustprogress nounwind uwtable
define linkonce_odr dso_local noundef i64 @_ZNKSt6vectorIP4EdgeSaIS1_EE4sizeEv(ptr noundef nonnull align 8 dereferenceable(24) %0) #1 comdat align 2 {
  %2 = alloca ptr, align 8
  store ptr %0, ptr %2, align 8, !tbaa !158
  %3 = load ptr, ptr %2, align 8
  %4 = getelementptr inbounds nuw %"struct.std::_Vector_base", ptr %3, i32 0, i32 0
  %5 = getelementptr inbounds nuw %"struct.std::_Vector_base<Edge *, std::allocator<Edge *>>::_Vector_impl_data", ptr %4, i32 0, i32 1
  %6 = load ptr, ptr %5, align 8, !tbaa !288
  %7 = getelementptr inbounds nuw %"struct.std::_Vector_base", ptr %3, i32 0, i32 0
  %8 = getelementptr inbounds nuw %"struct.std::_Vector_base<Edge *, std::allocator<Edge *>>::_Vector_impl_data", ptr %7, i32 0, i32 0
  %9 = load ptr, ptr %8, align 8, !tbaa !287
  %10 = ptrtoint ptr %6 to i64
  %11 = ptrtoint ptr %9 to i64
  %12 = sub i64 %10, %11
  %13 = sdiv exact i64 %12, 8
  ret i64 %13
}

; Function Attrs: mustprogress nounwind uwtable
define linkonce_odr dso_local noundef ptr @_ZNKSt13_Rb_tree_nodeISt4pairIKP4EdgeN4Plan4WantEEE9_M_valptrEv(ptr noundef nonnull align 8 dereferenceable(48) %0) #1 comdat align 2 {
  %2 = alloca ptr, align 8
  store ptr %0, ptr %2, align 8, !tbaa !389
  %3 = load ptr, ptr %2, align 8
  %4 = getelementptr inbounds nuw %"struct.std::_Rb_tree_node", ptr %3, i32 0, i32 1
  %5 = call noundef ptr @_ZNK9__gnu_cxx16__aligned_membufISt4pairIKP4EdgeN4Plan4WantEEE6_M_ptrEv(ptr noundef nonnull align 8 dereferenceable(16) %4) #7
  ret ptr %5
}

; Function Attrs: mustprogress nounwind uwtable
define linkonce_odr dso_local ptr @_ZNKSt8_Rb_treeIP4EdgeSt4pairIKS1_N4Plan4WantEESt10_Select1stIS6_ESt4lessIS1_ESaIS6_EE3endEv(ptr noundef nonnull align 8 dereferenceable(48) %0) #1 comdat align 2 {
  %2 = alloca %"struct.std::_Rb_tree_const_iterator.95", align 8
  %3 = alloca ptr, align 8
  store ptr %0, ptr %3, align 8, !tbaa !350
  %4 = load ptr, ptr %3, align 8
  %5 = getelementptr inbounds nuw %"class.std::_Rb_tree", ptr %4, i32 0, i32 0
  %6 = getelementptr inbounds i8, ptr %5, i64 8
  %7 = getelementptr inbounds nuw %"struct.std::_Rb_tree_header", ptr %6, i32 0, i32 0
  call void @_ZNSt23_Rb_tree_const_iteratorISt4pairIKP4EdgeN4Plan4WantEEEC2EPKSt18_Rb_tree_node_base(ptr noundef nonnull align 8 dereferenceable(8) %2, ptr noundef %7) #7
  %8 = getelementptr inbounds nuw %"struct.std::_Rb_tree_const_iterator.95", ptr %2, i32 0, i32 0
  %9 = load ptr, ptr %8, align 8
  ret ptr %9
}

; Function Attrs: mustprogress nounwind uwtable
define linkonce_odr dso_local ptr @_ZNKSt8_Rb_treeIP4EdgeSt4pairIKS1_N4Plan4WantEESt10_Select1stIS6_ESt4lessIS1_ESaIS6_EE5beginEv(ptr noundef nonnull align 8 dereferenceable(48) %0) #1 comdat align 2 {
  %2 = alloca %"struct.std::_Rb_tree_const_iterator.95", align 8
  %3 = alloca ptr, align 8
  store ptr %0, ptr %3, align 8, !tbaa !350
  %4 = load ptr, ptr %3, align 8
  %5 = getelementptr inbounds nuw %"class.std::_Rb_tree", ptr %4, i32 0, i32 0
  %6 = getelementptr inbounds i8, ptr %5, i64 8
  %7 = getelementptr inbounds nuw %"struct.std::_Rb_tree_header", ptr %6, i32 0, i32 0
  %8 = getelementptr inbounds nuw %"struct.std::_Rb_tree_node_base", ptr %7, i32 0, i32 2
  %9 = load ptr, ptr %8, align 8, !tbaa !364
  call void @_ZNSt23_Rb_tree_const_iteratorISt4pairIKP4EdgeN4Plan4WantEEEC2EPKSt18_Rb_tree_node_base(ptr noundef nonnull align 8 dereferenceable(8) %2, ptr noundef %9) #7
  %10 = getelementptr inbounds nuw %"struct.std::_Rb_tree_const_iterator.95", ptr %2, i32 0, i32 0
  %11 = load ptr, ptr %10, align 8
  ret ptr %11
}

; Function Attrs: mustprogress nounwind uwtable
define linkonce_odr dso_local noundef i64 @_ZNKSt8_Rb_treeIP4EdgeSt4pairIKS1_N4Plan4WantEESt10_Select1stIS6_ESt4lessIS1_ESaIS6_EE4sizeEv(ptr noundef nonnull align 8 dereferenceable(48) %0) #1 comdat align 2 {
  %2 = alloca ptr, align 8
  store ptr %0, ptr %2, align 8, !tbaa !350
  %3 = load ptr, ptr %2, align 8
  %4 = getelementptr inbounds nuw %"class.std::_Rb_tree", ptr %3, i32 0, i32 0
  %5 = getelementptr inbounds i8, ptr %4, i64 8
  %6 = getelementptr inbounds nuw %"struct.std::_Rb_tree_header", ptr %5, i32 0, i32 1
  %7 = load i64, ptr %6, align 8, !tbaa !366
  ret i64 %7
}

; Function Attrs: mustprogress nounwind uwtable
define linkonce_odr dso_local noundef i64 @_ZNKSt14priority_queueIP4EdgeSt6vectorIS1_SaIS1_EE16EdgePriorityLessE4sizeEv(ptr noundef nonnull align 8 dereferenceable(25) %0) #1 comdat align 2 {
  %2 = alloca ptr, align 8
  store ptr %0, ptr %2, align 8, !tbaa !141
  %3 = load ptr, ptr %2, align 8
  %4 = getelementptr inbounds nuw %"class.std::priority_queue", ptr %3, i32 0, i32 0
  %5 = call noundef i64 @_ZNKSt6vectorIP4EdgeSaIS1_EE4sizeEv(ptr noundef nonnull align 8 dereferenceable(24) %4) #7
  ret i64 %5
}

; Function Attrs: mustprogress nounwind uwtable
define linkonce_odr dso_local noundef nonnull align 8 dereferenceable(8) ptr @_ZNSt23_Rb_tree_const_iteratorISt4pairIKP4EdgeN4Plan4WantEEEppEv(ptr noundef nonnull align 8 dereferenceable(8) %0) #1 comdat align 2 {
  %2 = alloca ptr, align 8
  store ptr %0, ptr %2, align 8, !tbaa !251
  %3 = load ptr, ptr %2, align 8
  %4 = getelementptr inbounds nuw %"struct.std::_Rb_tree_const_iterator.95", ptr %3, i32 0, i32 0
  %5 = load ptr, ptr %4, align 8, !tbaa !253
  %6 = call noundef ptr @_ZSt18_Rb_tree_incrementPKSt18_Rb_tree_node_base(ptr noundef %5) #20
  %7 = getelementptr inbounds nuw %"struct.std::_Rb_tree_const_iterator.95", ptr %3, i32 0, i32 0
  store ptr %6, ptr %7, align 8, !tbaa !253
  ret ptr %3
}

; Function Attrs: mustprogress nounwind uwtable
define linkonce_odr dso_local noundef ptr @_ZNKSt23_Rb_tree_const_iteratorISt4pairIKP4EdgeN4Plan4WantEEEptEv(ptr noundef nonnull align 8 dereferenceable(8) %0) #1 comdat align 2 {
  %2 = alloca ptr, align 8
  store ptr %0, ptr %2, align 8, !tbaa !251
  %3 = load ptr, ptr %2, align 8
  %4 = getelementptr inbounds nuw %"struct.std::_Rb_tree_const_iterator.95", ptr %3, i32 0, i32 0
  %5 = load ptr, ptr %4, align 8, !tbaa !253
  %6 = call noundef ptr @_ZNKSt13_Rb_tree_nodeISt4pairIKP4EdgeN4Plan4WantEEE9_M_valptrEv(ptr noundef nonnull align 8 dereferenceable(48) %5)
  ret ptr %6
}

; Function Attrs: mustprogress nounwind uwtable
define linkonce_odr dso_local noundef zeroext i1 @_ZStneRKSt23_Rb_tree_const_iteratorISt4pairIKP4EdgeN4Plan4WantEEES9_(ptr noundef nonnull align 8 dereferenceable(8) %0, ptr noundef nonnull align 8 dereferenceable(8) %1) #1 comdat {
  %3 = alloca ptr, align 8
  %4 = alloca ptr, align 8
  store ptr %0, ptr %3, align 8, !tbaa !251
  store ptr %1, ptr %4, align 8, !tbaa !251
  %5 = load ptr, ptr %3, align 8, !tbaa !251
  %6 = getelementptr inbounds nuw %"struct.std::_Rb_tree_const_iterator.95", ptr %5, i32 0, i32 0
  %7 = load ptr, ptr %6, align 8, !tbaa !253
  %8 = load ptr, ptr %4, align 8, !tbaa !251
  %9 = getelementptr inbounds nuw %"struct.std::_Rb_tree_const_iterator.95", ptr %8, i32 0, i32 0
  %10 = load ptr, ptr %9, align 8, !tbaa !253
  %11 = icmp ne ptr %7, %10
  ret i1 %11
}

; Function Attrs: mustprogress nounwind uwtable
define linkonce_odr dso_local ptr @_ZNKSt3mapIP4EdgeN4Plan4WantESt4lessIS1_ESaISt4pairIKS1_S3_EEE3endEv(ptr noundef nonnull align 8 dereferenceable(48) %0) #1 comdat align 2 {
  %2 = alloca %"struct.std::_Rb_tree_const_iterator.95", align 8
  %3 = alloca ptr, align 8
  store ptr %0, ptr %3, align 8, !tbaa !40
  %4 = load ptr, ptr %3, align 8
  %5 = getelementptr inbounds nuw %"class.std::map", ptr %4, i32 0, i32 0
  %6 = call ptr @_ZNKSt8_Rb_treeIP4EdgeSt4pairIKS1_N4Plan4WantEESt10_Select1stIS6_ESt4lessIS1_ESaIS6_EE3endEv(ptr noundef nonnull align 8 dereferenceable(48) %5) #7
  %7 = getelementptr inbounds nuw %"struct.std::_Rb_tree_const_iterator.95", ptr %2, i32 0, i32 0
  store ptr %6, ptr %7, align 8
  %8 = getelementptr inbounds nuw %"struct.std::_Rb_tree_const_iterator.95", ptr %2, i32 0, i32 0
  %9 = load ptr, ptr %8, align 8
  ret ptr %9
}

; Function Attrs: mustprogress nounwind uwtable
define linkonce_odr dso_local ptr @_ZNKSt3mapIP4EdgeN4Plan4WantESt4lessIS1_ESaISt4pairIKS1_S3_EEE5beginEv(ptr noundef nonnull align 8 dereferenceable(48) %0) #1 comdat align 2 {
  %2 = alloca %"struct.std::_Rb_tree_const_iterator.95", align 8
  %3 = alloca ptr, align 8
  store ptr %0, ptr %3, align 8, !tbaa !40
  %4 = load ptr, ptr %3, align 8
  %5 = getelementptr inbounds nuw %"class.std::map", ptr %4, i32 0, i32 0
  %6 = call ptr @_ZNKSt8_Rb_treeIP4EdgeSt4pairIKS1_N4Plan4WantEESt10_Select1stIS6_ESt4lessIS1_ESaIS6_EE5beginEv(ptr noundef nonnull align 8 dereferenceable(48) %5) #7
  %7 = getelementptr inbounds nuw %"struct.std::_Rb_tree_const_iterator.95", ptr %2, i32 0, i32 0
  store ptr %6, ptr %7, align 8
  %8 = getelementptr inbounds nuw %"struct.std::_Rb_tree_const_iterator.95", ptr %2, i32 0, i32 0
  %9 = load ptr, ptr %8, align 8
  ret ptr %9
}

; Function Attrs: mustprogress nounwind uwtable
define linkonce_odr dso_local noundef i64 @_ZNKSt3mapIP4EdgeN4Plan4WantESt4lessIS1_ESaISt4pairIKS1_S3_EEE4sizeEv(ptr noundef nonnull align 8 dereferenceable(48) %0) #1 comdat align 2 {
  %2 = alloca ptr, align 8
  store ptr %0, ptr %2, align 8, !tbaa !40
  %3 = load ptr, ptr %2, align 8
  %4 = getelementptr inbounds nuw %"class.std::map", ptr %3, i32 0, i32 0
  %5 = call noundef i64 @_ZNKSt8_Rb_treeIP4EdgeSt4pairIKS1_N4Plan4WantEESt10_Select1stIS6_ESt4lessIS1_ESaIS6_EE4sizeEv(ptr noundef nonnull align 8 dereferenceable(48) %4) #7
  ret i64 %5
}

; Function Attrs: mustprogress uwtable
define dso_local void @_ZNK4Plan4DumpEv(ptr noundef nonnull align 8 dereferenceable(120) %0) #0 align 2 {
  %2 = alloca ptr, align 8
  %3 = alloca %"struct.std::_Rb_tree_const_iterator.95", align 8
  %4 = alloca %"struct.std::_Rb_tree_const_iterator.95", align 8
  store ptr %0, ptr %2, align 8, !tbaa !4
  %5 = load ptr, ptr %2, align 8
  %6 = getelementptr inbounds nuw %struct.Plan, ptr %5, i32 0, i32 0
  %7 = call noundef i64 @_ZNKSt3mapIP4EdgeN4Plan4WantESt4lessIS1_ESaISt4pairIKS1_S3_EEE4sizeEv(ptr noundef nonnull align 8 dereferenceable(48) %6) #7
  %8 = trunc i64 %7 to i32
  %9 = call i32 (ptr, ...) @printf(ptr noundef @.str.5, i32 noundef %8)
  call void @llvm.lifetime.start.p0(i64 8, ptr %3) #7
  %10 = getelementptr inbounds nuw %struct.Plan, ptr %5, i32 0, i32 0
  %11 = call ptr @_ZNKSt3mapIP4EdgeN4Plan4WantESt4lessIS1_ESaISt4pairIKS1_S3_EEE5beginEv(ptr noundef nonnull align 8 dereferenceable(48) %10) #7
  %12 = getelementptr inbounds nuw %"struct.std::_Rb_tree_const_iterator.95", ptr %3, i32 0, i32 0
  store ptr %11, ptr %12, align 8
  br label %13

13:                                               ; preds = %30, %1
  call void @llvm.lifetime.start.p0(i64 8, ptr %4) #7
  %14 = getelementptr inbounds nuw %struct.Plan, ptr %5, i32 0, i32 0
  %15 = call ptr @_ZNKSt3mapIP4EdgeN4Plan4WantESt4lessIS1_ESaISt4pairIKS1_S3_EEE3endEv(ptr noundef nonnull align 8 dereferenceable(48) %14) #7
  %16 = getelementptr inbounds nuw %"struct.std::_Rb_tree_const_iterator.95", ptr %4, i32 0, i32 0
  store ptr %15, ptr %16, align 8
  %17 = call noundef zeroext i1 @_ZStneRKSt23_Rb_tree_const_iteratorISt4pairIKP4EdgeN4Plan4WantEEES9_(ptr noundef nonnull align 8 dereferenceable(8) %3, ptr noundef nonnull align 8 dereferenceable(8) %4) #7
  call void @llvm.lifetime.end.p0(i64 8, ptr %4) #7
  br i1 %17, label %19, label %18

18:                                               ; preds = %13
  call void @llvm.lifetime.end.p0(i64 8, ptr %3) #7
  br label %32

19:                                               ; preds = %13
  %20 = call noundef ptr @_ZNKSt23_Rb_tree_const_iteratorISt4pairIKP4EdgeN4Plan4WantEEEptEv(ptr noundef nonnull align 8 dereferenceable(8) %3) #7
  %21 = getelementptr inbounds nuw %"struct.std::pair.19", ptr %20, i32 0, i32 1
  %22 = load i32, ptr %21, align 8, !tbaa !143
  %23 = icmp ne i32 %22, 0
  br i1 %23, label %24, label %26

24:                                               ; preds = %19
  %25 = call i32 (ptr, ...) @printf(ptr noundef @.str.6)
  br label %26

26:                                               ; preds = %24, %19
  %27 = call noundef ptr @_ZNKSt23_Rb_tree_const_iteratorISt4pairIKP4EdgeN4Plan4WantEEEptEv(ptr noundef nonnull align 8 dereferenceable(8) %3) #7
  %28 = getelementptr inbounds nuw %"struct.std::pair.19", ptr %27, i32 0, i32 0
  %29 = load ptr, ptr %28, align 8, !tbaa !92
  call void @_ZNK4Edge4DumpEPKc(ptr noundef nonnull align 8 dereferenceable(168) %29, ptr noundef @.str.7)
  br label %30

30:                                               ; preds = %26
  %31 = call noundef nonnull align 8 dereferenceable(8) ptr @_ZNSt23_Rb_tree_const_iteratorISt4pairIKP4EdgeN4Plan4WantEEEppEv(ptr noundef nonnull align 8 dereferenceable(8) %3) #7
  br label %13, !llvm.loop !250

32:                                               ; preds = %18
  %33 = getelementptr inbounds nuw %struct.Plan, ptr %5, i32 0, i32 1
  %34 = call noundef i64 @_ZNKSt14priority_queueIP4EdgeSt6vectorIS1_SaIS1_EE16EdgePriorityLessE4sizeEv(ptr noundef nonnull align 8 dereferenceable(25) %33)
  %35 = trunc i64 %34 to i32
  %36 = call i32 (ptr, ...) @printf(ptr noundef @.str.8, i32 noundef %35)
  ret void
}