; Function Attrs: mustprogress uwtable
define dso_local void @_ZNK4Plan4DumpEv(ptr noundef nonnull readonly align 8 dereferenceable(120) %0) local_unnamed_addr #2 align 2 {
  %2 = getelementptr inbounds nuw i8, ptr %0, i64 40
  %3 = load i64, ptr %2, align 8, !tbaa !43
  %4 = trunc i64 %3 to i32
  %5 = tail call i32 (ptr, ...) @printf(ptr noundef nonnull dereferenceable(1) @.str.5, i32 noundef %4)
  %6 = getelementptr inbounds nuw i8, ptr %0, i64 24
  %7 = load ptr, ptr %6, align 8, !tbaa !14
  %8 = getelementptr inbounds nuw i8, ptr %0, i64 8
  %.not56 = icmp eq ptr %7, %8
  br i1 %.not56, label %._crit_edge, label %.lr.ph

._crit_edge:                                      ; preds = %24, %1
  %9 = getelementptr inbounds nuw i8, ptr %0, i64 48
  %10 = getelementptr inbounds nuw i8, ptr %0, i64 56
  %11 = load ptr, ptr %10, align 8, !tbaa !42
  %12 = load ptr, ptr %9, align 8, !tbaa !41
  %13 = ptrtoint ptr %11 to i64
  %14 = ptrtoint ptr %12 to i64
  %15 = sub i64 %13, %14
  %16 = lshr exact i64 %15, 3
  %17 = trunc i64 %16 to i32
  %18 = tail call i32 (ptr, ...) @printf(ptr noundef nonnull dereferenceable(1) @.str.8, i32 noundef %17)
  ret void

.lr.ph:                                           ; preds = %1, %24
  %.sroa.01.07 = phi ptr [ %26, %24 ], [ %7, %1 ]
  %19 = getelementptr inbounds nuw i8, ptr %.sroa.01.07, i64 32
  %20 = getelementptr inbounds nuw i8, ptr %.sroa.01.07, i64 40
  %21 = load i32, ptr %20, align 8, !tbaa !95
  %.not = icmp eq i32 %21, 0
  br i1 %.not, label %24, label %22

22:                                               ; preds = %.lr.ph
  %23 = tail call i32 (ptr, ...) @printf(ptr noundef nonnull dereferenceable(1) @.str.6)
  br label %24

24:                                               ; preds = %22, %.lr.ph
  %25 = load ptr, ptr %19, align 8, !tbaa !92
  tail call void @_ZNK4Edge4DumpEPKc(ptr noundef nonnull align 8 dereferenceable(168) %25, ptr noundef nonnull @.str.7)
  %26 = tail call noundef ptr @_ZSt18_Rb_tree_incrementPKSt18_Rb_tree_node_base(ptr noundef nonnull %.sroa.01.07) #30
  %.not5 = icmp eq ptr %26, %8
  br i1 %.not5, label %._crit_edge, label %.lr.ph, !llvm.loop !211
}